; ModuleID = '42/713.c'
source_filename = "42/713.c"
target datalayout = "e-m:e-p270:32:32-p271:32:32-p272:64:64-i64:64-f80:128-n8:16:32:64-S128"
target triple = "x86_64-pc-linux-gnu"

@.str = private unnamed_addr constant [3 x i8] c"%d\00", align 1
@.str.1 = private unnamed_addr constant [4 x i8] c"%d \00", align 1

; Function Attrs: noinline nounwind uwtable
define dso_local i32 @main() #0 {
  %1 = alloca i32, align 4
  %2 = alloca [100000 x i32], align 16
  %3 = alloca i32, align 4
  %4 = alloca i32, align 4
  %5 = alloca i32, align 4
  %6 = alloca i32, align 4
  %7 = alloca i32*, align 8
  store i32 0, i32* %1, align 4
  %8 = call i32 (i8*, ...) @__isoc99_scanf(i8* getelementptr inbounds ([3 x i8], [3 x i8]* @.str, i64 0, i64 0), i32* %3)
  %9 = getelementptr inbounds [100000 x i32], [100000 x i32]* %2, i64 0, i64 0
  store i32* %9, i32** %7, align 8
  store i32 0, i32* %6, align 4
  br label %10

10:                                               ; preds = %18, %0
  %11 = load i32, i32* %6, align 4
  %12 = load i32, i32* %3, align 4
  %13 = icmp slt i32 %11, %12
  br i1 %13, label %14, label %21

14:                                               ; preds = %10
  %15 = load i32*, i32** %7, align 8
  %16 = getelementptr inbounds i32, i32* %15, i32 1
  store i32* %16, i32** %7, align 8
  %17 = call i32 (i8*, ...) @__isoc99_scanf(i8* getelementptr inbounds ([3 x i8], [3 x i8]* @.str, i64 0, i64 0), i32* %15)
  br label %18

18:                                               ; preds = %14
  %19 = load i32, i32* %6, align 4
  %20 = add nsw i32 %19, 1
  store i32 %20, i32* %6, align 4
  br label %10

21:                                               ; preds = %10
  %22 = call i32 (i8*, ...) @__isoc99_scanf(i8* getelementptr inbounds ([3 x i8], [3 x i8]* @.str, i64 0, i64 0), i32* %4)
  %23 = getelementptr inbounds [100000 x i32], [100000 x i32]* %2, i64 0, i64 0
  store i32* %23, i32** %7, align 8
  store i32 0, i32* %6, align 4
  br label %24

24:                                               ; preds = %62, %21
  %25 = load i32, i32* %6, align 4
  %26 = load i32, i32* %3, align 4
  %27 = icmp slt i32 %25, %26
  br i1 %27, label %28, label %65

28:                                               ; preds = %24
  %29 = load i32*, i32** %7, align 8
  %30 = load i32, i32* %6, align 4
  %31 = sext i32 %30 to i64
  %32 = getelementptr inbounds i32, i32* %29, i64 %31
  %33 = load i32, i32* %32, align 4
  %34 = load i32, i32* %4, align 4
  %35 = icmp eq i32 %33, %34
  br i1 %35, label %36, label %61

36:                                               ; preds = %28
  %37 = load i32, i32* %6, align 4
  store i32 %37, i32* %5, align 4
  br label %38

38:                                               ; preds = %53, %36
  %39 = load i32, i32* %5, align 4
  %40 = load i32, i32* %3, align 4
  %41 = icmp slt i32 %39, %40
  br i1 %41, label %42, label %56

42:                                               ; preds = %38
  %43 = load i32*, i32** %7, align 8
  %44 = load i32, i32* %5, align 4
  %45 = sext i32 %44 to i64
  %46 = getelementptr inbounds i32, i32* %43, i64 %45
  %47 = getelementptr inbounds i32, i32* %46, i64 1
  %48 = load i32, i32* %47, align 4
  %49 = load i32*, i32** %7, align 8
  %50 = load i32, i32* %5, align 4
  %51 = sext i32 %50 to i64
  %52 = getelementptr inbounds i32, i32* %49, i64 %51
  store i32 %48, i32* %52, align 4
  br label %53

53:                                               ; preds = %42
  %54 = load i32, i32* %5, align 4
  %55 = add nsw i32 %54, 1
  store i32 %55, i32* %5, align 4
  br label %38

56:                                               ; preds = %38
  %57 = load i32, i32* %6, align 4
  %58 = sub nsw i32 %57, 1
  store i32 %58, i32* %6, align 4
  %59 = load i32, i32* %3, align 4
  %60 = sub nsw i32 %59, 1
  store i32 %60, i32* %3, align 4
  br label %61

61:                                               ; preds = %56, %28
  br label %62

62:                                               ; preds = %61
  %63 = load i32, i32* %6, align 4
  %64 = add nsw i32 %63, 1
  store i32 %64, i32* %6, align 4
  br label %24

65:                                               ; preds = %24
  %66 = getelementptr inbounds [100000 x i32], [100000 x i32]* %2, i64 0, i64 0
  store i32* %66, i32** %7, align 8
  store i32 0, i32* %6, align 4
  br label %67

67:                                               ; preds = %76, %65
  %68 = load i32, i32* %6, align 4
  %69 = load i32, i32* %3, align 4
  %70 = sub nsw i32 %69, 1
  %71 = icmp slt i32 %68, %70
  br i1 %71, label %72, label %81

72:                                               ; preds = %67
  %73 = load i32*, i32** %7, align 8
  %74 = load i32, i32* %73, align 4
  %75 = call i32 (i8*, ...) @printf(i8* getelementptr inbounds ([4 x i8], [4 x i8]* @.str.1, i64 0, i64 0), i32 %74)
  br label %76

76:                                               ; preds = %72
  %77 = load i32, i32* %6, align 4
  %78 = add nsw i32 %77, 1
  store i32 %78, i32* %6, align 4
  %79 = load i32*, i32** %7, align 8
  %80 = getelementptr inbounds i32, i32* %79, i32 1
  store i32* %80, i32** %7, align 8
  br label %67

81:                                               ; preds = %67
  %82 = load i32*, i32** %7, align 8
  %83 = load i32, i32* %82, align 4
  %84 = call i32 (i8*, ...) @printf(i8* getelementptr inbounds ([3 x i8], [3 x i8]* @.str, i64 0, i64 0), i32 %83)
  %85 = load i32, i32* %1, align 4
  ret i32 %85
}

declare dso_local i32 @__isoc99_scanf(i8*, ...) #1

declare dso_local i32 @printf(i8*, ...) #1


!llvm.module.flags = !{!0}
!llvm.ident = !{!1}

!0 = !{i32 1, !"wchar_size", i32 4}
!1 = !{!"clang version 10.0.0-4ubuntu1 "}
